target datalayout = "e-m:e-p270:32:32-p271:32:32-p272:64:64-i64:64-i128:128-f80:128-n8:16:32:64-S128"
target triple = "x86_64-pc-linux-gnu"

@.str.4 = private unnamed_addr constant [2 x i8] c"\0A\00", align 1
@.str.5 = private unnamed_addr constant [40 x i8] c"    hierarchy [-check] [-top <module>]\0A\00", align 1
@.str.6 = private unnamed_addr constant [51 x i8] c"    hierarchy -generate <cell-types> <port-decls>\0A\00", align 1
@.str.7 = private unnamed_addr constant [73 x i8] c"In parametric designs, a module might exists in several variations with\0A\00", align 1
@.str.8 = private unnamed_addr constant [75 x i8] c"different parameter values. This pass looks at all modules in the current\0A\00", align 1
@.str.9 = private unnamed_addr constant [73 x i8] c"design and re-runs the language frontends for the parametric modules as\0A\00", align 1
@.str.10 = private unnamed_addr constant [76 x i8] c"needed. It also resolves assignments to wired logic data types (wand/wor),\0A\00", align 1
@.str.11 = private unnamed_addr constant [75 x i8] c"resolves positional module parameters, unrolls array instances, and more.\0A\00", align 1
@.str.12 = private unnamed_addr constant [12 x i8] c"    -check\0A\00", align 1
@.str.13 = private unnamed_addr constant [71 x i8] c"        also check the design hierarchy. this generates an error when\0A\00", align 1
@.str.14 = private unnamed_addr constant [49 x i8] c"        an unknown module is used as cell type.\0A\00", align 1
@.str.15 = private unnamed_addr constant [15 x i8] c"    -simcheck\0A\00", align 1
@.str.16 = private unnamed_addr constant [70 x i8] c"        like -check, but also throw an error if blackbox modules are\0A\00", align 1
@.str.17 = private unnamed_addr constant [75 x i8] c"        instantiated, and throw an error if the design has no top module.\0A\00", align 1
@.str.18 = private unnamed_addr constant [15 x i8] c"    -smtcheck\0A\00", align 1
@.str.19 = private unnamed_addr constant [59 x i8] c"        like -simcheck, but allow smtlib2_module modules.\0A\00", align 1
@.str.20 = private unnamed_addr constant [16 x i8] c"    -purge_lib\0A\00", align 1
@.str.21 = private unnamed_addr constant [77 x i8] c"        by default the hierarchy command will not remove library (blackbox)\0A\00", align 1
@.str.22 = private unnamed_addr constant [74 x i8] c"        modules. use this option to also remove unused blackbox modules.\0A\00", align 1
@.str.23 = private unnamed_addr constant [25 x i8] c"    -libdir <directory>\0A\00", align 1
@.str.24 = private unnamed_addr constant [75 x i8] c"        search for files named <module_name>.v in the specified directory\0A\00", align 1
@.str.25 = private unnamed_addr constant [73 x i8] c"        for unknown modules and automatically run read_verilog for each\0A\00", align 1
@.str.26 = private unnamed_addr constant [25 x i8] c"        unknown module.\0A\00", align 1
@.str.27 = private unnamed_addr constant [23 x i8] c"    -keep_positionals\0A\00", align 1
@.str.28 = private unnamed_addr constant [75 x i8] c"        per default this pass also converts positional arguments in cells\0A\00", align 1
@.str.29 = private unnamed_addr constant [76 x i8] c"        to arguments using port names. This option disables this behavior.\0A\00", align 1
@.str.30 = private unnamed_addr constant [22 x i8] c"    -keep_portwidths\0A\00", align 1
@.str.31 = private unnamed_addr constant [72 x i8] c"        per default this pass adjusts the port width on cells that are\0A\00", align 1
@.str.32 = private unnamed_addr constant [78 x i8] c"        module instances when the width does not match the module port. This\0A\00", align 1
@.str.33 = private unnamed_addr constant [40 x i8] c"        option disables this behavior.\0A\00", align 1
@.str.34 = private unnamed_addr constant [17 x i8] c"    -nodefaults\0A\00", align 1
@.str.35 = private unnamed_addr constant [50 x i8] c"        do not resolve input port default values\0A\00", align 1
@.str.36 = private unnamed_addr constant [20 x i8] c"    -nokeep_prints\0A\00", align 1
@.str.37 = private unnamed_addr constant [72 x i8] c"        per default this pass sets the \22keep\22 attribute on all modules\0A\00", align 1
@.str.38 = private unnamed_addr constant [67 x i8] c"        that directly or indirectly display text on the terminal.\0A\00", align 1
@.str.39 = private unnamed_addr constant [45 x i8] c"        This option disables this behavior.\0A\00", align 1
@.str.40 = private unnamed_addr constant [21 x i8] c"    -nokeep_asserts\0A\00", align 1
@.str.41 = private unnamed_addr constant [76 x i8] c"        that directly or indirectly contain one or more formal properties.\0A\00", align 1
@.str.42 = private unnamed_addr constant [19 x i8] c"    -top <module>\0A\00", align 1
@.str.43 = private unnamed_addr constant [77 x i8] c"        use the specified top module to build the design hierarchy. Modules\0A\00", align 1
@.str.44 = private unnamed_addr constant [57 x i8] c"        outside this tree (unused modules) are removed.\0A\00", align 1
@.str.45 = private unnamed_addr constant [78 x i8] c"        when the -top option is used, the 'top' attribute will be set on the\0A\00", align 1
@.str.46 = private unnamed_addr constant [79 x i8] c"        specified top module. otherwise a module with the 'top' attribute set\0A\00", align 1
@.str.47 = private unnamed_addr constant [73 x i8] c"        will implicitly be used as top module, if such a module exists.\0A\00", align 1
@.str.48 = private unnamed_addr constant [15 x i8] c"    -auto-top\0A\00", align 1
@.str.49 = private unnamed_addr constant [78 x i8] c"        automatically determine the top of the design hierarchy and mark it.\0A\00", align 1
@.str.50 = private unnamed_addr constant [26 x i8] c"    -chparam name value \0A\00", align 1
@.str.51 = private unnamed_addr constant [78 x i8] c"       elaborate the top module using this parameter value. Modules on which\0A\00", align 1
@.str.52 = private unnamed_addr constant [80 x i8] c"       this parameter does not exist may cause a warning message to be output.\0A\00", align 1
@.str.53 = private unnamed_addr constant [73 x i8] c"       This option can be specified multiple times to override multiple\0A\00", align 1
@.str.54 = private unnamed_addr constant [71 x i8] c"       parameters. String values must be passed in double quotes (\22).\0A\00", align 1
@.str.55 = private unnamed_addr constant [75 x i8] c"In -generate mode this pass generates blackbox modules for the given cell\0A\00", align 1
@.str.56 = private unnamed_addr constant [77 x i8] c"types (wildcards supported). For this the design is searched for cells that\0A\00", align 1
@.str.57 = private unnamed_addr constant [72 x i8] c"match the given types and then the given port declarations are used to\0A\00", align 1
@.str.58 = private unnamed_addr constant [77 x i8] c"determine the direction of the ports. The syntax for a port declaration is:\0A\00", align 1
@.str.59 = private unnamed_addr constant [33 x i8] c"    {i|o|io}[@<num>]:<portname>\0A\00", align 1
@.str.60 = private unnamed_addr constant [74 x i8] c"Input ports are specified with the 'i' prefix, output ports with the 'o'\0A\00", align 1
@.str.61 = private unnamed_addr constant [75 x i8] c"prefix and inout ports with the 'io' prefix. The optional <num> specifies\0A\00", align 1
@.str.62 = private unnamed_addr constant [74 x i8] c"the position of the port in the parameter list (needed when instantiated\0A\00", align 1
@.str.63 = private unnamed_addr constant [78 x i8] c"using positional arguments). When <num> is not specified, the <portname> can\0A\00", align 1
@.str.64 = private unnamed_addr constant [35 x i8] c"also contain wildcard characters.\0A\00", align 1
@.str.65 = private unnamed_addr constant [76 x i8] c"This pass ignores the current selection and always operates on all modules\0A\00", align 1
@.str.66 = private unnamed_addr constant [24 x i8] c"in the current design.\0A\00", align 1

; Function Attrs: mustprogress uwtable
define internal void @_ZN12_GLOBAL__N_113HierarchyPass4helpEv(ptr noundef nonnull align 8 dereferenceable(104) %0) unnamed_addr #4 align 2 {
  %2 = alloca ptr, align 8
  store ptr %0, ptr %2, align 8, !tbaa !6
  call void (ptr, ...) @_ZN5Yosys3logEPKcz(ptr noundef @.str.4)
  call void (ptr, ...) @_ZN5Yosys3logEPKcz(ptr noundef @.str.5)
  call void (ptr, ...) @_ZN5Yosys3logEPKcz(ptr noundef @.str.6)
  call void (ptr, ...) @_ZN5Yosys3logEPKcz(ptr noundef @.str.4)
  call void (ptr, ...) @_ZN5Yosys3logEPKcz(ptr noundef @.str.7)
  call void (ptr, ...) @_ZN5Yosys3logEPKcz(ptr noundef @.str.8)
  call void (ptr, ...) @_ZN5Yosys3logEPKcz(ptr noundef @.str.9)
  call void (ptr, ...) @_ZN5Yosys3logEPKcz(ptr noundef @.str.10)
  call void (ptr, ...) @_ZN5Yosys3logEPKcz(ptr noundef @.str.11)
  call void (ptr, ...) @_ZN5Yosys3logEPKcz(ptr noundef @.str.4)
  call void (ptr, ...) @_ZN5Yosys3logEPKcz(ptr noundef @.str.12)
  call void (ptr, ...) @_ZN5Yosys3logEPKcz(ptr noundef @.str.13)
  call void (ptr, ...) @_ZN5Yosys3logEPKcz(ptr noundef @.str.14)
  call void (ptr, ...) @_ZN5Yosys3logEPKcz(ptr noundef @.str.4)
  call void (ptr, ...) @_ZN5Yosys3logEPKcz(ptr noundef @.str.15)
  call void (ptr, ...) @_ZN5Yosys3logEPKcz(ptr noundef @.str.16)
  call void (ptr, ...) @_ZN5Yosys3logEPKcz(ptr noundef @.str.17)
  call void (ptr, ...) @_ZN5Yosys3logEPKcz(ptr noundef @.str.4)
  call void (ptr, ...) @_ZN5Yosys3logEPKcz(ptr noundef @.str.18)
  call void (ptr, ...) @_ZN5Yosys3logEPKcz(ptr noundef @.str.19)
  call void (ptr, ...) @_ZN5Yosys3logEPKcz(ptr noundef @.str.4)
  call void (ptr, ...) @_ZN5Yosys3logEPKcz(ptr noundef @.str.20)
  call void (ptr, ...) @_ZN5Yosys3logEPKcz(ptr noundef @.str.21)
  call void (ptr, ...) @_ZN5Yosys3logEPKcz(ptr noundef @.str.22)
  call void (ptr, ...) @_ZN5Yosys3logEPKcz(ptr noundef @.str.4)
  call void (ptr, ...) @_ZN5Yosys3logEPKcz(ptr noundef @.str.23)
  call void (ptr, ...) @_ZN5Yosys3logEPKcz(ptr noundef @.str.24)
  call void (ptr, ...) @_ZN5Yosys3logEPKcz(ptr noundef @.str.25)
  call void (ptr, ...) @_ZN5Yosys3logEPKcz(ptr noundef @.str.26)
  call void (ptr, ...) @_ZN5Yosys3logEPKcz(ptr noundef @.str.4)
  call void (ptr, ...) @_ZN5Yosys3logEPKcz(ptr noundef @.str.27)
  call void (ptr, ...) @_ZN5Yosys3logEPKcz(ptr noundef @.str.28)
  call void (ptr, ...) @_ZN5Yosys3logEPKcz(ptr noundef @.str.29)
  call void (ptr, ...) @_ZN5Yosys3logEPKcz(ptr noundef @.str.4)
  call void (ptr, ...) @_ZN5Yosys3logEPKcz(ptr noundef @.str.30)
  call void (ptr, ...) @_ZN5Yosys3logEPKcz(ptr noundef @.str.31)
  call void (ptr, ...) @_ZN5Yosys3logEPKcz(ptr noundef @.str.32)
  call void (ptr, ...) @_ZN5Yosys3logEPKcz(ptr noundef @.str.33)
  call void (ptr, ...) @_ZN5Yosys3logEPKcz(ptr noundef @.str.4)
  call void (ptr, ...) @_ZN5Yosys3logEPKcz(ptr noundef @.str.34)
  call void (ptr, ...) @_ZN5Yosys3logEPKcz(ptr noundef @.str.35)
  call void (ptr, ...) @_ZN5Yosys3logEPKcz(ptr noundef @.str.4)
  call void (ptr, ...) @_ZN5Yosys3logEPKcz(ptr noundef @.str.36)
  call void (ptr, ...) @_ZN5Yosys3logEPKcz(ptr noundef @.str.37)
  call void (ptr, ...) @_ZN5Yosys3logEPKcz(ptr noundef @.str.38)
  call void (ptr, ...) @_ZN5Yosys3logEPKcz(ptr noundef @.str.39)
  call void (ptr, ...) @_ZN5Yosys3logEPKcz(ptr noundef @.str.4)
  call void (ptr, ...) @_ZN5Yosys3logEPKcz(ptr noundef @.str.40)
  call void (ptr, ...) @_ZN5Yosys3logEPKcz(ptr noundef @.str.37)
  call void (ptr, ...) @_ZN5Yosys3logEPKcz(ptr noundef @.str.41)
  call void (ptr, ...) @_ZN5Yosys3logEPKcz(ptr noundef @.str.39)
  call void (ptr, ...) @_ZN5Yosys3logEPKcz(ptr noundef @.str.4)
  call void (ptr, ...) @_ZN5Yosys3logEPKcz(ptr noundef @.str.42)
  call void (ptr, ...) @_ZN5Yosys3logEPKcz(ptr noundef @.str.43)
  call void (ptr, ...) @_ZN5Yosys3logEPKcz(ptr noundef @.str.44)
  call void (ptr, ...) @_ZN5Yosys3logEPKcz(ptr noundef @.str.4)
  call void (ptr, ...) @_ZN5Yosys3logEPKcz(ptr noundef @.str.45)
  call void (ptr, ...) @_ZN5Yosys3logEPKcz(ptr noundef @.str.46)
  call void (ptr, ...) @_ZN5Yosys3logEPKcz(ptr noundef @.str.47)
  call void (ptr, ...) @_ZN5Yosys3logEPKcz(ptr noundef @.str.4)
  call void (ptr, ...) @_ZN5Yosys3logEPKcz(ptr noundef @.str.48)
  call void (ptr, ...) @_ZN5Yosys3logEPKcz(ptr noundef @.str.49)
  call void (ptr, ...) @_ZN5Yosys3logEPKcz(ptr noundef @.str.4)
  call void (ptr, ...) @_ZN5Yosys3logEPKcz(ptr noundef @.str.50)
  call void (ptr, ...) @_ZN5Yosys3logEPKcz(ptr noundef @.str.51)
  call void (ptr, ...) @_ZN5Yosys3logEPKcz(ptr noundef @.str.52)
  call void (ptr, ...) @_ZN5Yosys3logEPKcz(ptr noundef @.str.53)
  call void (ptr, ...) @_ZN5Yosys3logEPKcz(ptr noundef @.str.54)
  call void (ptr, ...) @_ZN5Yosys3logEPKcz(ptr noundef @.str.4)
  call void (ptr, ...) @_ZN5Yosys3logEPKcz(ptr noundef @.str.55)
  call void (ptr, ...) @_ZN5Yosys3logEPKcz(ptr noundef @.str.56)
  call void (ptr, ...) @_ZN5Yosys3logEPKcz(ptr noundef @.str.57)
  call void (ptr, ...) @_ZN5Yosys3logEPKcz(ptr noundef @.str.58)
  call void (ptr, ...) @_ZN5Yosys3logEPKcz(ptr noundef @.str.4)
  call void (ptr, ...) @_ZN5Yosys3logEPKcz(ptr noundef @.str.59)
  call void (ptr, ...) @_ZN5Yosys3logEPKcz(ptr noundef @.str.4)
  call void (ptr, ...) @_ZN5Yosys3logEPKcz(ptr noundef @.str.60)
  call void (ptr, ...) @_ZN5Yosys3logEPKcz(ptr noundef @.str.61)
  call void (ptr, ...) @_ZN5Yosys3logEPKcz(ptr noundef @.str.62)
  call void (ptr, ...) @_ZN5Yosys3logEPKcz(ptr noundef @.str.63)
  call void (ptr, ...) @_ZN5Yosys3logEPKcz(ptr noundef @.str.64)
  call void (ptr, ...) @_ZN5Yosys3logEPKcz(ptr noundef @.str.4)
  call void (ptr, ...) @_ZN5Yosys3logEPKcz(ptr noundef @.str.65)
  call void (ptr, ...) @_ZN5Yosys3logEPKcz(ptr noundef @.str.66)
  call void (ptr, ...) @_ZN5Yosys3logEPKcz(ptr noundef @.str.4)
  ret void
}